target datalayout = "e-m:e-p270:32:32-p271:32:32-p272:64:64-i64:64-i128:128-f80:128-n8:16:32:64-S128"
target triple = "x86_64-pc-linux-gnu"

%struct.rb_code_location_struct = type { %struct.rb_code_position_struct, %struct.rb_code_position_struct }
%struct.rb_code_position_struct = type { i32, i32 }
%struct.rb_strterm_heredoc_struct = type { ptr, i64, i32, i32, i8, i8 }

; Function Attrs: nounwind sspstrong uwtable
define internal ptr @rb_parser_set_pos(ptr noundef %0, i32 noundef %1, i32 noundef %2, i32 noundef %3) #0 {
  %5 = alloca ptr, align 8
  %6 = alloca i32, align 4
  %7 = alloca i32, align 4
  %8 = alloca i32, align 4
  store ptr %0, ptr %5, align 8, !tbaa !39
  store i32 %1, ptr %6, align 4, !tbaa !34
  store i32 %2, ptr %7, align 4, !tbaa !34
  store i32 %3, ptr %8, align 4, !tbaa !34
  %9 = load i32, ptr %6, align 4, !tbaa !34
  %10 = load ptr, ptr %5, align 8, !tbaa !39
  %11 = getelementptr inbounds nuw %struct.rb_code_location_struct, ptr %10, i32 0, i32 0
  %12 = getelementptr inbounds nuw %struct.rb_code_position_struct, ptr %11, i32 0, i32 0
  store i32 %9, ptr %12, align 4, !tbaa !173
  %13 = load i32, ptr %7, align 4, !tbaa !34
  %14 = load ptr, ptr %5, align 8, !tbaa !39
  %15 = getelementptr inbounds nuw %struct.rb_code_location_struct, ptr %14, i32 0, i32 0
  %16 = getelementptr inbounds nuw %struct.rb_code_position_struct, ptr %15, i32 0, i32 1
  store i32 %13, ptr %16, align 4, !tbaa !144
  %17 = load i32, ptr %6, align 4, !tbaa !34
  %18 = load ptr, ptr %5, align 8, !tbaa !39
  %19 = getelementptr inbounds nuw %struct.rb_code_location_struct, ptr %18, i32 0, i32 1
  %20 = getelementptr inbounds nuw %struct.rb_code_position_struct, ptr %19, i32 0, i32 0
  store i32 %17, ptr %20, align 4, !tbaa !99
  %21 = load i32, ptr %8, align 4, !tbaa !34
  %22 = load ptr, ptr %5, align 8, !tbaa !39
  %23 = getelementptr inbounds nuw %struct.rb_code_location_struct, ptr %22, i32 0, i32 1
  %24 = getelementptr inbounds nuw %struct.rb_code_position_struct, ptr %23, i32 0, i32 1
  store i32 %21, ptr %24, align 4, !tbaa !145
  %25 = load ptr, ptr %5, align 8, !tbaa !39
  ret ptr %25
}

; Function Attrs: nounwind sspstrong uwtable
define dso_local ptr @rb_parser_set_location_from_strterm_heredoc(ptr noundef %0, ptr noundef %1, ptr noundef %2) #0 {
  %4 = alloca ptr, align 8
  %5 = alloca ptr, align 8
  %6 = alloca ptr, align 8
  %7 = alloca i32, align 4
  %8 = alloca i32, align 4
  %9 = alloca i32, align 4
  store ptr %0, ptr %4, align 8, !tbaa !7
  store ptr %1, ptr %5, align 8, !tbaa !538
  store ptr %2, ptr %6, align 8, !tbaa !39
  call void @llvm.lifetime.start.p0(i64 4, ptr %7) #26
  %10 = load ptr, ptr %5, align 8, !tbaa !538
  %11 = getelementptr inbounds nuw %struct.rb_strterm_heredoc_struct, ptr %10, i32 0, i32 2
  %12 = load i32, ptr %11, align 8, !tbaa !540
  store i32 %12, ptr %7, align 4, !tbaa !34
  call void @llvm.lifetime.start.p0(i64 4, ptr %8) #26
  %13 = load ptr, ptr %5, align 8, !tbaa !538
  %14 = getelementptr inbounds nuw %struct.rb_strterm_heredoc_struct, ptr %13, i32 0, i32 1
  %15 = load i64, ptr %14, align 8, !tbaa !542
  %16 = trunc i64 %15 to i32
  %17 = load ptr, ptr %5, align 8, !tbaa !538
  %18 = getelementptr inbounds nuw %struct.rb_strterm_heredoc_struct, ptr %17, i32 0, i32 4
  %19 = load i8, ptr %18, align 8, !tbaa !543
  %20 = zext i8 %19 to i32
  %21 = sub i32 %16, %20
  %22 = sext i32 %21 to i64
  %23 = load ptr, ptr %5, align 8, !tbaa !538
  %24 = getelementptr inbounds nuw %struct.rb_strterm_heredoc_struct, ptr %23, i32 0, i32 5
  %25 = load i8, ptr %24, align 1, !tbaa !544
  %26 = zext i8 %25 to i32
  %27 = and i32 %26, 32
  %28 = icmp ne i32 %27, 0
  %29 = xor i1 %28, true
  %30 = zext i1 %29 to i32
  %31 = sext i32 %30 to i64
  %32 = sub i64 3, %31
  %33 = sub i64 %22, %32
  %34 = trunc i64 %33 to i32
  store i32 %34, ptr %8, align 4, !tbaa !34
  call void @llvm.lifetime.start.p0(i64 4, ptr %9) #26
  %35 = load ptr, ptr %5, align 8, !tbaa !538
  %36 = getelementptr inbounds nuw %struct.rb_strterm_heredoc_struct, ptr %35, i32 0, i32 1
  %37 = load i64, ptr %36, align 8, !tbaa !542
  %38 = trunc i64 %37 to i32
  %39 = load ptr, ptr %5, align 8, !tbaa !538
  %40 = getelementptr inbounds nuw %struct.rb_strterm_heredoc_struct, ptr %39, i32 0, i32 3
  %41 = load i32, ptr %40, align 4, !tbaa !545
  %42 = add i32 %38, %41
  %43 = load ptr, ptr %5, align 8, !tbaa !538
  %44 = getelementptr inbounds nuw %struct.rb_strterm_heredoc_struct, ptr %43, i32 0, i32 4
  %45 = load i8, ptr %44, align 8, !tbaa !543
  %46 = zext i8 %45 to i32
  %47 = add i32 %42, %46
  store i32 %47, ptr %9, align 4, !tbaa !34
  %48 = load ptr, ptr %6, align 8, !tbaa !39
  %49 = load i32, ptr %7, align 4, !tbaa !34
  %50 = load i32, ptr %8, align 4, !tbaa !34
  %51 = load i32, ptr %9, align 4, !tbaa !34
  %52 = call ptr @rb_parser_set_pos(ptr noundef %48, i32 noundef %49, i32 noundef %50, i32 noundef %51)
  call void @llvm.lifetime.end.p0(i64 4, ptr %9) #26
  call void @llvm.lifetime.end.p0(i64 4, ptr %8) #26
  call void @llvm.lifetime.end.p0(i64 4, ptr %7) #26
  ret ptr %52
}