; Function Attrs: mustprogress nofree norecurse nosync nounwind sspstrong willreturn memory(argmem: readwrite) uwtable
define dso_local noundef ptr @rb_parser_set_location_from_strterm_heredoc(ptr noundef readnone captures(none) %0, ptr noundef readonly captures(none) %1, ptr noundef returned writeonly captures(ret: address, provenance) initializes((0, 16)) %2) local_unnamed_addr #4 {
  %4 = getelementptr inbounds nuw i8, ptr %1, i64 16
  %5 = load i32, ptr %4, align 8, !tbaa !488
  %6 = getelementptr inbounds nuw i8, ptr %1, i64 8
  %7 = load i64, ptr %6, align 8, !tbaa !490
  %8 = trunc i64 %7 to i32
  %9 = getelementptr inbounds nuw i8, ptr %1, i64 24
  %10 = load i8, ptr %9, align 8, !tbaa !491
  %11 = zext i8 %10 to i32
  %12 = getelementptr inbounds nuw i8, ptr %1, i64 25
  %13 = load i8, ptr %12, align 1, !tbaa !492
  %14 = lshr i8 %13, 5
  %15 = and i8 %14, 1
  %16 = or disjoint i8 %15, 2
  %17 = zext nneg i8 %16 to i32
  %18 = add nuw nsw i32 %11, %17
  %19 = sub i32 %8, %18
  %20 = getelementptr inbounds nuw i8, ptr %1, i64 20
  %21 = load i32, ptr %20, align 4, !tbaa !493
  %22 = add i32 %11, %8
  %23 = add i32 %22, %21
  store i32 %5, ptr %2, align 4, !tbaa !53
  %24 = getelementptr inbounds nuw i8, ptr %2, i64 4
  store i32 %19, ptr %24, align 4, !tbaa !56
  %25 = getelementptr inbounds nuw i8, ptr %2, i64 8
  store i32 %5, ptr %25, align 4, !tbaa !57
  %26 = getelementptr inbounds nuw i8, ptr %2, i64 12
  store i32 %23, ptr %26, align 4, !tbaa !58
  ret ptr %2
}